; Function Attrs: nounwind uwtable
define ptr @l___private_Lean_Meta_Tactic_Grind_Arith_CommRing_DenoteExpr_0__Lean_Meta_Grind_Arith_CommRing_denoteNum___rarg(ptr noundef %0, ptr noundef %1, ptr noundef %2) #0 {
  %4 = getelementptr inbounds nuw i8, ptr %0, i64 16
  %5 = load ptr, ptr %4, align 8, !tbaa !11
  %6 = ptrtoint ptr %5 to i64
  %7 = and i64 %6, 1
  %.not = icmp eq i64 %7, 0
  br i1 %.not, label %8, label %lean_inc.exit

8:                                                ; preds = %3
  %.val.i = load i32, ptr %5, align 4, !tbaa !6
  %9 = icmp sgt i32 %.val.i, 0
  br i1 %9, label %10, label %12, !prof !5

10:                                               ; preds = %8
  %11 = add nuw i32 %.val.i, 1
  store i32 %11, ptr %5, align 4, !tbaa !6
  br label %lean_inc.exit

12:                                               ; preds = %8
  %.not.i = icmp eq i32 %.val.i, 0
  br i1 %.not.i, label %lean_inc.exit, label %13

13:                                               ; preds = %12
  tail call void @lean_inc_ref_cold(ptr noundef nonnull %5) #3
  br label %lean_inc.exit

lean_inc.exit:                                    ; preds = %13, %12, %10, %3
  tail call void @lean_inc_heartbeat() #3
  %14 = tail call noalias ptr @mi_malloc_small(i64 noundef 40) #3
  %15 = icmp eq ptr %14, null
  br i1 %15, label %16, label %lean_alloc_closure.exit

16:                                               ; preds = %lean_inc.exit
  tail call void @lean_internal_panic_out_of_memory() #4
  unreachable

lean_alloc_closure.exit:                          ; preds = %lean_inc.exit
  %17 = getelementptr inbounds nuw i8, ptr %14, i64 4
  store i32 1, ptr %14, align 4, !tbaa !6
  store i32 -184549336, ptr %17, align 4
  %18 = getelementptr inbounds nuw i8, ptr %14, i64 8
  store ptr @l___private_Lean_Meta_Tactic_Grind_Arith_CommRing_DenoteExpr_0__Lean_Meta_Grind_Arith_CommRing_denoteNum___rarg___lambda__1___boxed, ptr %18, align 8, !tbaa !11
  %19 = getelementptr inbounds nuw i8, ptr %14, i64 16
  store i16 3, ptr %19, align 8, !tbaa !13
  %20 = getelementptr inbounds nuw i8, ptr %14, i64 18
  store i16 2, ptr %20, align 2, !tbaa !13
  %21 = getelementptr inbounds nuw i8, ptr %14, i64 24
  store ptr %2, ptr %21, align 8, !tbaa !11
  %22 = getelementptr inbounds nuw i8, ptr %14, i64 32
  store ptr %0, ptr %22, align 8, !tbaa !11
  %23 = tail call ptr @lean_apply_4(ptr noundef %5, ptr noundef nonnull inttoptr (i64 1 to ptr), ptr noundef nonnull inttoptr (i64 1 to ptr), ptr noundef %1, ptr noundef nonnull %14) #3
  ret ptr %23
}